; Function Attrs: mustprogress nofree norecurse nosync nounwind willreturn memory(none) uwtable
define i32 @u_getUnicodeProperties_77(i32 noundef %0, i32 noundef %1) local_unnamed_addr #0 {
  %3 = icmp sgt i32 %1, 2
  br i1 %3, label %44, label %4

4:                                                ; preds = %2
  %5 = icmp ult i32 %0, 55296
  br i1 %5, label %6, label %8

6:                                                ; preds = %4
  %7 = lshr i32 %0, 5
  br label %.sink.split

8:                                                ; preds = %4
  %9 = icmp ult i32 %0, 65536
  br i1 %9, label %10, label %15

10:                                               ; preds = %8
  %11 = icmp samesign ult i32 %0, 56320
  %12 = select i1 %11, i32 320, i32 0
  %13 = lshr i32 %0, 5
  %14 = add nuw nsw i32 %12, %13
  br label %.sink.split

15:                                               ; preds = %8
  %16 = icmp ugt i32 %0, 1114111
  br i1 %16, label %35, label %17

17:                                               ; preds = %15
  %18 = lshr i32 %0, 11
  %19 = zext nneg i32 %18 to i64
  %20 = getelementptr inbounds nuw i16, ptr @_ZL22propsVectorsTrie_index, i64 %19
  %21 = getelementptr inbounds nuw i8, ptr %20, i64 4160
  %22 = load i16, ptr %21, align 2, !tbaa !3
  %23 = zext i16 %22 to i32
  %24 = lshr i32 %0, 5
  %25 = and i32 %24, 63
  %26 = add nuw nsw i32 %25, %23
  br label %.sink.split

.sink.split:                                      ; preds = %6, %17, %10
  %.sink21 = phi i32 [ %14, %10 ], [ %26, %17 ], [ %7, %6 ]
  %27 = zext nneg i32 %.sink21 to i64
  %28 = getelementptr inbounds nuw i16, ptr @_ZL22propsVectorsTrie_index, i64 %27
  %29 = load i16, ptr %28, align 2, !tbaa !3
  %30 = zext i16 %29 to i32
  %31 = shl nuw nsw i32 %30, 2
  %32 = and i32 %0, 31
  %33 = add nuw nsw i32 %31, %32
  %34 = zext nneg i32 %33 to i64
  br label %35

35:                                               ; preds = %.sink.split, %15
  %36 = phi i64 [ 5364, %15 ], [ %34, %.sink.split ]
  %37 = getelementptr inbounds nuw i16, ptr @_ZL22propsVectorsTrie_index, i64 %36
  %38 = load i16, ptr %37, align 2, !tbaa !3
  %39 = zext i16 %38 to i32
  %40 = add nsw i32 %1, %39
  %41 = sext i32 %40 to i64
  %42 = getelementptr inbounds [6426 x i32], ptr @_ZL12propsVectors, i64 0, i64 %41
  %43 = load i32, ptr %42, align 4, !tbaa !11
  br label %44

44:                                               ; preds = %2, %35
  %.0 = phi i32 [ %43, %35 ], [ 0, %2 ]
  ret i32 %.0
}